target datalayout = "e-m:e-p270:32:32-p271:32:32-p272:64:64-i64:64-i128:128-f80:128-n8:16:32:64-S128"
target triple = "x86_64-pc-linux-gnu"

@hf_6lowpan_pattern = internal global i32 0, align 4
@.str.312 = private unnamed_addr constant [17 x i8] c"Unknown (0x%02x)\00", align 1

; Function Attrs: null_pointer_is_valid sspstrong uwtable
define internal void @dissect_6lowpan_unknown(ptr noundef %0, ptr noundef %1, ptr noundef %2) #0 {
  %4 = alloca ptr, align 8
  %5 = alloca ptr, align 8
  %6 = alloca ptr, align 8
  %7 = alloca ptr, align 8
  %8 = alloca i8, align 1
  store ptr %0, ptr %4, align 8
  store ptr %1, ptr %5, align 8
  store ptr %2, ptr %6, align 8
  call void @llvm.lifetime.start.p0(i64 8, ptr %7) #15
  %9 = load ptr, ptr %4, align 8
  %10 = call zeroext i8 @tvb_get_bits8(ptr noundef %9, i32 noundef 0, i32 noundef 3)
  %11 = zext i8 %10 to i32
  %12 = icmp eq i32 %11, 3
  br i1 %12, label %13, label %18

13:                                               ; preds = %3
  %14 = load ptr, ptr %6, align 8
  %15 = load i32, ptr @hf_6lowpan_pattern, align 4
  %16 = load ptr, ptr %4, align 8
  %17 = call ptr @proto_tree_add_bits_item(ptr noundef %14, i32 noundef %15, ptr noundef %16, i32 noundef 0, i32 noundef 3, i32 noundef 0)
  br label %29

18:                                               ; preds = %3
  call void @llvm.lifetime.start.p0(i64 1, ptr %8) #15
  %19 = load ptr, ptr %4, align 8
  %20 = call zeroext i8 @tvb_get_uint8(ptr noundef %19, i32 noundef 0)
  store i8 %20, ptr %8, align 1
  %21 = load ptr, ptr %6, align 8
  %22 = load i32, ptr @hf_6lowpan_pattern, align 4
  %23 = load ptr, ptr %4, align 8
  %24 = load i8, ptr %8, align 1
  %25 = zext i8 %24 to i32
  %26 = load i8, ptr %8, align 1
  %27 = zext i8 %26 to i32
  %28 = call ptr (ptr, i32, ptr, i32, i32, i32, i32, ptr, ...) @proto_tree_add_uint_bits_format_value(ptr noundef %21, i32 noundef %22, ptr noundef %23, i32 noundef 0, i32 noundef 8, i32 noundef %25, i32 noundef 0, ptr noundef @.str.312, i32 noundef %27)
  call void @llvm.lifetime.end.p0(i64 1, ptr %8) #15
  br label %29

29:                                               ; preds = %18, %13
  %30 = load ptr, ptr %4, align 8
  %31 = call ptr @tvb_new_subset_remaining(ptr noundef %30, i32 noundef 1)
  store ptr %31, ptr %7, align 8
  %32 = load ptr, ptr %7, align 8
  %33 = load ptr, ptr %5, align 8
  %34 = load ptr, ptr %6, align 8
  %35 = call ptr @proto_tree_get_root(ptr noundef %34)
  %36 = call i32 @call_data_dissector(ptr noundef %32, ptr noundef %33, ptr noundef %35)
  call void @llvm.lifetime.end.p0(i64 8, ptr %7) #15
  ret void
}