; Function Attrs: null_pointer_is_valid sspstrong uwtable
define internal fastcc void @dissect_6lowpan_unknown(ptr noundef %0, ptr noundef %1, ptr noundef %2) unnamed_addr #0 {
  %4 = tail call zeroext i8 @tvb_get_bits8(ptr noundef %0, i32 noundef 0, i32 noundef 3)
  %5 = icmp eq i8 %4, 3
  br i1 %5, label %6, label %9

6:                                                ; preds = %3
  %7 = load i32, ptr @hf_6lowpan_pattern, align 4
  %8 = tail call ptr @proto_tree_add_bits_item(ptr noundef %2, i32 noundef %7, ptr noundef %0, i32 noundef 0, i32 noundef 3, i32 noundef 0)
  br label %14

9:                                                ; preds = %3
  %10 = tail call zeroext i8 @tvb_get_uint8(ptr noundef %0, i32 noundef 0)
  %11 = load i32, ptr @hf_6lowpan_pattern, align 4
  %12 = zext i8 %10 to i32
  %13 = tail call ptr (ptr, i32, ptr, i32, i32, i32, i32, ptr, ...) @proto_tree_add_uint_bits_format_value(ptr noundef %2, i32 noundef %11, ptr noundef %0, i32 noundef 0, i32 noundef 8, i32 noundef %12, i32 noundef 0, ptr noundef nonnull @.str.312, i32 noundef %12)
  br label %14

14:                                               ; preds = %9, %6
  %15 = tail call ptr @tvb_new_subset_remaining(ptr noundef %0, i32 noundef 1)
  %16 = tail call ptr @proto_tree_get_root(ptr noundef %2)
  %17 = tail call i32 @call_data_dissector(ptr noundef %15, ptr noundef %1, ptr noundef %16)
  ret void
}